; Function Attrs: nounwind uwtable
define void @Wlc_NtkProfileCones(ptr noundef readonly captures(none) %0) local_unnamed_addr #3 {
  %2 = alloca i32, align 4
  %3 = alloca i32, align 4
  %4 = alloca i32, align 4
  %5 = alloca i32, align 4
  %6 = getelementptr i8, ptr %0, i64 68
  %.val19 = load i32, ptr %6, align 4
  %7 = icmp sgt i32 %.val19, 0
  br i1 %7, label %.lr.ph, label %.critedge

.lr.ph:                                           ; preds = %1
  %8 = getelementptr i8, ptr %0, i64 640
  %9 = getelementptr i8, ptr %0, i64 648
  br label %10

10:                                               ; preds = %.lr.ph, %Wlc_NtkCountMarked.exit
  %.020 = phi i32 [ 0, %.lr.ph ], [ %32, %Wlc_NtkCountMarked.exit ]
  tail call void @Wlc_NtkMarkCone(ptr noundef nonnull %0, i32 noundef %.020, i32 noundef 1, i32 noundef 0, i32 noundef 0)
  store i32 0, ptr %5, align 4
  store i32 0, ptr %4, align 4
  store i32 0, ptr %3, align 4
  store i32 0, ptr %2, align 4
  %.val2730.i = load i32, ptr %9, align 8
  %11 = icmp sgt i32 %.val2730.i, 1
  br i1 %11, label %.lr.ph.i.preheader, label %Wlc_NtkCountMarked.exit

.lr.ph.i.preheader:                               ; preds = %10
  %.val.i = load ptr, ptr %8, align 8
  %12 = zext nneg i32 %.val2730.i to i64
  br label %.lr.ph.i

.lr.ph.i:                                         ; preds = %.lr.ph.i.preheader, %25
  %indvars.iv.i = phi i64 [ %indvars.iv.next.i, %25 ], [ 1, %.lr.ph.i.preheader ]
  %.032.i = phi i32 [ %.1.i, %25 ], [ 0, %.lr.ph.i.preheader ]
  %13 = getelementptr inbounds nuw %struct.Wlc_Obj_t_, ptr %.val.i, i64 %indvars.iv.i
  %14 = load i16, ptr %13, align 8
  %15 = and i16 %14, 128
  %.not.i = icmp eq i16 %15, 0
  br i1 %.not.i, label %25, label %16

16:                                               ; preds = %.lr.ph.i
  %17 = and i16 %14, 63
  %.not29.i = icmp eq i16 %17, 1
  br i1 %.not29.i, label %.sink.split.i, label %18

18:                                               ; preds = %16
  %19 = and i16 %14, 61
  %narrow.i.not.i = icmp eq i16 %19, 1
  br i1 %narrow.i.not.i, label %.sink.split.i, label %20

20:                                               ; preds = %18
  %21 = add nsw i32 %.032.i, 1
  switch i16 %17, label %25 [
    i16 43, label %.sink.split.i
    i16 44, label %.sink.split.i
    i16 45, label %22
  ]

22:                                               ; preds = %20
  br label %.sink.split.i

.sink.split.i:                                    ; preds = %22, %20, %20, %18, %16
  %.sink.i = phi ptr [ %5, %22 ], [ %2, %16 ], [ %3, %18 ], [ %4, %20 ], [ %4, %20 ]
  %.1.ph.i = phi i32 [ %21, %22 ], [ %.032.i, %16 ], [ %.032.i, %18 ], [ %21, %20 ], [ %21, %20 ]
  %23 = load i32, ptr %.sink.i, align 4
  %24 = add nsw i32 %23, 1
  store i32 %24, ptr %.sink.i, align 4
  br label %25

25:                                               ; preds = %.sink.split.i, %20, %.lr.ph.i
  %.1.i = phi i32 [ %.032.i, %.lr.ph.i ], [ %21, %20 ], [ %.1.ph.i, %.sink.split.i ]
  %indvars.iv.next.i = add nuw nsw i64 %indvars.iv.i, 1
  %exitcond.not = icmp eq i64 %indvars.iv.next.i, %12
  br i1 %exitcond.not, label %Wlc_NtkCountMarked.exit.loopexit, label %.lr.ph.i, !llvm.loop !72

Wlc_NtkCountMarked.exit.loopexit:                 ; preds = %25
  %.0..0..0.18.pre = load i32, ptr %2, align 4
  %.0..0..0.17.pre = load i32, ptr %3, align 4
  %.0..0..0.16.pre = load i32, ptr %4, align 4
  %.0..0..0..pre = load i32, ptr %5, align 4
  br label %Wlc_NtkCountMarked.exit

Wlc_NtkCountMarked.exit:                          ; preds = %Wlc_NtkCountMarked.exit.loopexit, %10
  %.0..0. = phi i32 [ 0, %10 ], [ %.0..0..0..pre, %Wlc_NtkCountMarked.exit.loopexit ]
  %.0..0.16 = phi i32 [ 0, %10 ], [ %.0..0..0.16.pre, %Wlc_NtkCountMarked.exit.loopexit ]
  %.0..0.17 = phi i32 [ 0, %10 ], [ %.0..0..0.17.pre, %Wlc_NtkCountMarked.exit.loopexit ]
  %.0..0.18 = phi i32 [ 0, %10 ], [ %.0..0..0.18.pre, %Wlc_NtkCountMarked.exit.loopexit ]
  %.0.lcssa.i = phi i32 [ 0, %10 ], [ %.1.i, %Wlc_NtkCountMarked.exit.loopexit ]
  %26 = tail call i32 (ptr, ...) @printf(ptr noundef nonnull dereferenceable(1) @.str.55, i32 noundef %.020)
  %27 = tail call i32 (ptr, ...) @printf(ptr noundef nonnull dereferenceable(1) @.str.44, i32 noundef %.0..0.18)
  %28 = tail call i32 (ptr, ...) @printf(ptr noundef nonnull dereferenceable(1) @.str.56, i32 noundef %.0..0.17)
  %29 = tail call i32 (ptr, ...) @printf(ptr noundef nonnull dereferenceable(1) @.str.57, i32 noundef %.0.lcssa.i)
  %30 = tail call i32 (ptr, ...) @printf(ptr noundef nonnull dereferenceable(1) @.str.58, i32 noundef %.0..0.16)
  %31 = tail call i32 (ptr, ...) @printf(ptr noundef nonnull dereferenceable(1) @.str.59, i32 noundef %.0..0.)
  %putchar = tail call i32 @putchar(i32 10)
  %32 = add nuw nsw i32 %.020, 1
  %.val = load i32, ptr %6, align 4
  %33 = icmp slt i32 %32, %.val
  br i1 %33, label %10, label %.critedge, !llvm.loop !74

.critedge:                                        ; preds = %Wlc_NtkCountMarked.exit, %1
  %34 = getelementptr i8, ptr %0, i64 648
  %.val56.i = load i32, ptr %34, align 8
  %35 = icmp sgt i32 %.val56.i, 1
  br i1 %35, label %.lr.ph.i12, label %Wlc_NtkCleanMarks.exit

.lr.ph.i12:                                       ; preds = %.critedge
  %36 = getelementptr i8, ptr %0, i64 640
  br label %37

37:                                               ; preds = %37, %.lr.ph.i12
  %indvars.iv.i13 = phi i64 [ 1, %.lr.ph.i12 ], [ %indvars.iv.next.i15, %37 ]
  %.val.i14 = load ptr, ptr %36, align 8
  %38 = getelementptr inbounds nuw %struct.Wlc_Obj_t_, ptr %.val.i14, i64 %indvars.iv.i13
  %39 = load i16, ptr %38, align 8
  %40 = and i16 %39, -129
  store i16 %40, ptr %38, align 8
  %indvars.iv.next.i15 = add nuw nsw i64 %indvars.iv.i13, 1
  %.val5.i = load i32, ptr %34, align 8
  %41 = sext i32 %.val5.i to i64
  %42 = icmp slt i64 %indvars.iv.next.i15, %41
  br i1 %42, label %37, label %Wlc_NtkCleanMarks.exit, !llvm.loop !26

Wlc_NtkCleanMarks.exit:                           ; preds = %37, %.critedge
  ret void
}